target datalayout = "e-m:e-p270:32:32-p271:32:32-p272:64:64-i64:64-i128:128-f80:128-n8:16:32:64-S128"
target triple = "x86_64-pc-linux-gnu"

@cavlc_level_tab = internal global [7 x [256 x [2 x i8]]] zeroinitializer, align 16
@ff_log2_tab = external constant [256 x i8], align 16

; Function Attrs: alwaysinline nounwind willreturn memory(none) uwtable
define internal i32 @ff_log2_c(i32 noundef %0) #8 {
  %2 = alloca i32, align 4
  %3 = alloca i32, align 4
  store i32 %0, ptr %2, align 4, !tbaa !4
  call void @llvm.lifetime.start.p0(i64 4, ptr %3) #10
  store i32 0, ptr %3, align 4, !tbaa !4
  %4 = load i32, ptr %2, align 4, !tbaa !4
  %5 = and i32 %4, -65536
  %6 = icmp ne i32 %5, 0
  br i1 %6, label %7, label %12

7:                                                ; preds = %1
  %8 = load i32, ptr %2, align 4, !tbaa !4
  %9 = lshr i32 %8, 16
  store i32 %9, ptr %2, align 4, !tbaa !4
  %10 = load i32, ptr %3, align 4, !tbaa !4
  %11 = add nsw i32 %10, 16
  store i32 %11, ptr %3, align 4, !tbaa !4
  br label %12

12:                                               ; preds = %7, %1
  %13 = load i32, ptr %2, align 4, !tbaa !4
  %14 = and i32 %13, 65280
  %15 = icmp ne i32 %14, 0
  br i1 %15, label %16, label %21

16:                                               ; preds = %12
  %17 = load i32, ptr %2, align 4, !tbaa !4
  %18 = lshr i32 %17, 8
  store i32 %18, ptr %2, align 4, !tbaa !4
  %19 = load i32, ptr %3, align 4, !tbaa !4
  %20 = add nsw i32 %19, 8
  store i32 %20, ptr %3, align 4, !tbaa !4
  br label %21

21:                                               ; preds = %16, %12
  %22 = load i32, ptr %2, align 4, !tbaa !4
  %23 = zext i32 %22 to i64
  %24 = getelementptr inbounds nuw [256 x i8], ptr @ff_log2_tab, i64 0, i64 %23
  %25 = load i8, ptr %24, align 1, !tbaa !14
  %26 = zext i8 %25 to i32
  %27 = load i32, ptr %3, align 4, !tbaa !4
  %28 = add nsw i32 %27, %26
  store i32 %28, ptr %3, align 4, !tbaa !4
  %29 = load i32, ptr %3, align 4, !tbaa !4
  call void @llvm.lifetime.end.p0(i64 4, ptr %3) #10
  ret i32 %29
}

; Function Attrs: cold nounwind optsize uwtable
define internal void @init_cavlc_level_tab() #0 {
  %1 = alloca i32, align 4
  %2 = alloca i32, align 4
  %3 = alloca i32, align 4
  %4 = alloca i32, align 4
  %5 = alloca i32, align 4
  call void @llvm.lifetime.start.p0(i64 4, ptr %1) #10
  call void @llvm.lifetime.start.p0(i64 4, ptr %2) #10
  store i32 0, ptr %1, align 4, !tbaa !4
  br label %6

6:                                                ; preds = %114, %0
  %7 = load i32, ptr %1, align 4, !tbaa !4
  %8 = icmp slt i32 %7, 7
  br i1 %8, label %9, label %117

9:                                                ; preds = %6
  store i32 0, ptr %2, align 4, !tbaa !4
  br label %10

10:                                               ; preds = %110, %9
  %11 = load i32, ptr %2, align 4, !tbaa !4
  %12 = icmp ult i32 %11, 256
  br i1 %12, label %13, label %113

13:                                               ; preds = %10
  call void @llvm.lifetime.start.p0(i64 4, ptr %3) #10
  %14 = load i32, ptr %2, align 4, !tbaa !4
  %15 = mul i32 2, %14
  %16 = call i32 @ff_log2_c(i32 noundef %15) #12
  %17 = sub nsw i32 8, %16
  store i32 %17, ptr %3, align 4, !tbaa !4
  %18 = load i32, ptr %3, align 4, !tbaa !4
  %19 = add nsw i32 %18, 1
  %20 = load i32, ptr %1, align 4, !tbaa !4
  %21 = add nsw i32 %19, %20
  %22 = icmp sle i32 %21, 8
  br i1 %22, label %23, label %68

23:                                               ; preds = %13
  call void @llvm.lifetime.start.p0(i64 4, ptr %4) #10
  %24 = load i32, ptr %3, align 4, !tbaa !4
  %25 = load i32, ptr %1, align 4, !tbaa !4
  %26 = shl i32 %24, %25
  %27 = load i32, ptr %2, align 4, !tbaa !4
  %28 = load i32, ptr %2, align 4, !tbaa !4
  %29 = call i32 @ff_log2_c(i32 noundef %28) #12
  %30 = load i32, ptr %1, align 4, !tbaa !4
  %31 = sub nsw i32 %29, %30
  %32 = lshr i32 %27, %31
  %33 = add i32 %26, %32
  %34 = load i32, ptr %1, align 4, !tbaa !4
  %35 = shl i32 1, %34
  %36 = sub i32 %33, %35
  store i32 %36, ptr %4, align 4, !tbaa !4
  call void @llvm.lifetime.start.p0(i64 4, ptr %5) #10
  %37 = load i32, ptr %4, align 4, !tbaa !4
  %38 = and i32 %37, 1
  %39 = sub nsw i32 0, %38
  store i32 %39, ptr %5, align 4, !tbaa !4
  %40 = load i32, ptr %4, align 4, !tbaa !4
  %41 = add nsw i32 2, %40
  %42 = ashr i32 %41, 1
  %43 = load i32, ptr %5, align 4, !tbaa !4
  %44 = xor i32 %42, %43
  %45 = load i32, ptr %5, align 4, !tbaa !4
  %46 = sub nsw i32 %44, %45
  store i32 %46, ptr %4, align 4, !tbaa !4
  %47 = load i32, ptr %4, align 4, !tbaa !4
  %48 = trunc i32 %47 to i8
  %49 = load i32, ptr %1, align 4, !tbaa !4
  %50 = sext i32 %49 to i64
  %51 = getelementptr inbounds [7 x [256 x [2 x i8]]], ptr @cavlc_level_tab, i64 0, i64 %50
  %52 = load i32, ptr %2, align 4, !tbaa !4
  %53 = zext i32 %52 to i64
  %54 = getelementptr inbounds nuw [256 x [2 x i8]], ptr %51, i64 0, i64 %53
  %55 = getelementptr inbounds [2 x i8], ptr %54, i64 0, i64 0
  store i8 %48, ptr %55, align 2, !tbaa !14
  %56 = load i32, ptr %3, align 4, !tbaa !4
  %57 = add nsw i32 %56, 1
  %58 = load i32, ptr %1, align 4, !tbaa !4
  %59 = add nsw i32 %57, %58
  %60 = trunc i32 %59 to i8
  %61 = load i32, ptr %1, align 4, !tbaa !4
  %62 = sext i32 %61 to i64
  %63 = getelementptr inbounds [7 x [256 x [2 x i8]]], ptr @cavlc_level_tab, i64 0, i64 %62
  %64 = load i32, ptr %2, align 4, !tbaa !4
  %65 = zext i32 %64 to i64
  %66 = getelementptr inbounds nuw [256 x [2 x i8]], ptr %63, i64 0, i64 %65
  %67 = getelementptr inbounds [2 x i8], ptr %66, i64 0, i64 1
  store i8 %60, ptr %67, align 1, !tbaa !14
  call void @llvm.lifetime.end.p0(i64 4, ptr %5) #10
  call void @llvm.lifetime.end.p0(i64 4, ptr %4) #10
  br label %109

68:                                               ; preds = %13
  %69 = load i32, ptr %3, align 4, !tbaa !4
  %70 = add nsw i32 %69, 1
  %71 = icmp sle i32 %70, 8
  br i1 %71, label %72, label %93

72:                                               ; preds = %68
  %73 = load i32, ptr %3, align 4, !tbaa !4
  %74 = add nsw i32 %73, 100
  %75 = trunc i32 %74 to i8
  %76 = load i32, ptr %1, align 4, !tbaa !4
  %77 = sext i32 %76 to i64
  %78 = getelementptr inbounds [7 x [256 x [2 x i8]]], ptr @cavlc_level_tab, i64 0, i64 %77
  %79 = load i32, ptr %2, align 4, !tbaa !4
  %80 = zext i32 %79 to i64
  %81 = getelementptr inbounds nuw [256 x [2 x i8]], ptr %78, i64 0, i64 %80
  %82 = getelementptr inbounds [2 x i8], ptr %81, i64 0, i64 0
  store i8 %75, ptr %82, align 2, !tbaa !14
  %83 = load i32, ptr %3, align 4, !tbaa !4
  %84 = add nsw i32 %83, 1
  %85 = trunc i32 %84 to i8
  %86 = load i32, ptr %1, align 4, !tbaa !4
  %87 = sext i32 %86 to i64
  %88 = getelementptr inbounds [7 x [256 x [2 x i8]]], ptr @cavlc_level_tab, i64 0, i64 %87
  %89 = load i32, ptr %2, align 4, !tbaa !4
  %90 = zext i32 %89 to i64
  %91 = getelementptr inbounds nuw [256 x [2 x i8]], ptr %88, i64 0, i64 %90
  %92 = getelementptr inbounds [2 x i8], ptr %91, i64 0, i64 1
  store i8 %85, ptr %92, align 1, !tbaa !14
  br label %108

93:                                               ; preds = %68
  %94 = load i32, ptr %1, align 4, !tbaa !4
  %95 = sext i32 %94 to i64
  %96 = getelementptr inbounds [7 x [256 x [2 x i8]]], ptr @cavlc_level_tab, i64 0, i64 %95
  %97 = load i32, ptr %2, align 4, !tbaa !4
  %98 = zext i32 %97 to i64
  %99 = getelementptr inbounds nuw [256 x [2 x i8]], ptr %96, i64 0, i64 %98
  %100 = getelementptr inbounds [2 x i8], ptr %99, i64 0, i64 0
  store i8 108, ptr %100, align 2, !tbaa !14
  %101 = load i32, ptr %1, align 4, !tbaa !4
  %102 = sext i32 %101 to i64
  %103 = getelementptr inbounds [7 x [256 x [2 x i8]]], ptr @cavlc_level_tab, i64 0, i64 %102
  %104 = load i32, ptr %2, align 4, !tbaa !4
  %105 = zext i32 %104 to i64
  %106 = getelementptr inbounds nuw [256 x [2 x i8]], ptr %103, i64 0, i64 %105
  %107 = getelementptr inbounds [2 x i8], ptr %106, i64 0, i64 1
  store i8 8, ptr %107, align 1, !tbaa !14
  br label %108

108:                                              ; preds = %93, %72
  br label %109

109:                                              ; preds = %108, %23
  call void @llvm.lifetime.end.p0(i64 4, ptr %3) #10
  br label %110

110:                                              ; preds = %109
  %111 = load i32, ptr %2, align 4, !tbaa !4
  %112 = add i32 %111, 1
  store i32 %112, ptr %2, align 4, !tbaa !4
  br label %10, !llvm.loop !22

113:                                              ; preds = %10
  br label %114

114:                                              ; preds = %113
  %115 = load i32, ptr %1, align 4, !tbaa !4
  %116 = add nsw i32 %115, 1
  store i32 %116, ptr %1, align 4, !tbaa !4
  br label %6, !llvm.loop !23

117:                                              ; preds = %6
  call void @llvm.lifetime.end.p0(i64 4, ptr %2) #10
  call void @llvm.lifetime.end.p0(i64 4, ptr %1) #10
  ret void
}