; Function Attrs: cold nofree norecurse nosync nounwind optsize memory(write, argmem: none, inaccessiblemem: none) uwtable
define internal fastcc void @init_cavlc_level_tab() unnamed_addr #4 {
  br label %.preheader

.preheader:                                       ; preds = %0, %42
  %indvars.iv47 = phi i64 [ 0, %0 ], [ %indvars.iv.next48, %42 ]
  %1 = trunc nuw nsw i64 %indvars.iv47 to i32
  br label %2

2:                                                ; preds = %.preheader, %40
  %indvars.iv = phi i64 [ 0, %.preheader ], [ %indvars.iv.next, %40 ]
  %.not11.i = icmp samesign ult i64 %indvars.iv, 128
  %3 = trunc nuw nsw i64 %indvars.iv to i32
  %4 = lshr i32 %3, 7
  %indvars.iv.tr = trunc i64 %indvars.iv to i32
  %5 = shl i32 %indvars.iv.tr, 1
  %.110.i = select i1 %.not11.i, i32 %5, i32 %4
  %.1.i = select i1 %.not11.i, i32 0, i32 8
  %6 = zext nneg i32 %.110.i to i64
  %7 = getelementptr inbounds nuw [256 x i8], ptr @ff_log2_tab, i64 0, i64 %6
  %8 = load i8, ptr %7, align 1, !tbaa !12
  %9 = zext i8 %8 to i32
  %10 = add nuw nsw i32 %.1.i, %9
  %11 = sub nsw i32 9, %10
  %12 = add nsw i32 %11, %1
  %13 = icmp slt i32 %12, 9
  br i1 %13, label %14, label %32

14:                                               ; preds = %2
  %15 = getelementptr inbounds nuw [256 x i8], ptr @ff_log2_tab, i64 0, i64 %indvars.iv
  %16 = load i8, ptr %15, align 1, !tbaa !12
  %17 = zext i8 %16 to i32
  %18 = sub nsw i32 %17, %1
  %19 = lshr i32 %3, %18
  %20 = sub nsw i32 7, %10
  %21 = shl nsw i32 %20, %1
  %22 = add i32 %19, %21
  %23 = and i32 %22, 1
  %24 = sub nsw i32 0, %23
  %25 = add nsw i32 %22, 2
  %26 = lshr i32 %25, 1
  %27 = xor i32 %26, %24
  %28 = add i32 %27, %23
  %29 = trunc i32 %28 to i8
  %30 = getelementptr inbounds nuw [7 x [256 x [2 x i8]]], ptr @cavlc_level_tab, i64 0, i64 %indvars.iv47, i64 %indvars.iv
  store i8 %29, ptr %30, align 2, !tbaa !12
  %31 = trunc i32 %12 to i8
  br label %40

32:                                               ; preds = %2
  %.not = icmp eq i32 %10, 0
  br i1 %.not, label %38, label %33

33:                                               ; preds = %32
  %34 = trunc i32 %10 to i8
  %35 = sub i8 108, %34
  %36 = getelementptr inbounds nuw [7 x [256 x [2 x i8]]], ptr @cavlc_level_tab, i64 0, i64 %indvars.iv47, i64 %indvars.iv
  store i8 %35, ptr %36, align 2, !tbaa !12
  %37 = trunc i32 %11 to i8
  br label %40

38:                                               ; preds = %32
  %39 = getelementptr inbounds nuw [7 x [256 x [2 x i8]]], ptr @cavlc_level_tab, i64 0, i64 %indvars.iv47, i64 %indvars.iv
  store i8 108, ptr %39, align 2, !tbaa !12
  br label %40

40:                                               ; preds = %33, %38, %14
  %.sink = phi i8 [ %37, %33 ], [ 8, %38 ], [ %31, %14 ]
  %41 = getelementptr inbounds nuw [7 x [256 x [2 x i8]]], ptr @cavlc_level_tab, i64 0, i64 %indvars.iv47, i64 %indvars.iv, i64 1
  store i8 %.sink, ptr %41, align 1, !tbaa !12
  %indvars.iv.next = add nuw nsw i64 %indvars.iv, 1
  %exitcond.not = icmp eq i64 %indvars.iv.next, 256
  br i1 %exitcond.not, label %42, label %2, !llvm.loop !17

42:                                               ; preds = %40
  %indvars.iv.next48 = add nuw nsw i64 %indvars.iv47, 1
  %exitcond50.not = icmp eq i64 %indvars.iv.next48, 7
  br i1 %exitcond50.not, label %43, label %.preheader, !llvm.loop !18

43:                                               ; preds = %42
  ret void
}